; Function Attrs: mustprogress nofree norecurse nounwind willreturn memory(read, inaccessiblemem: none) uwtable
define hidden noundef zeroext i1 @_ZN4lean24is_extract_closed_aux_fnERKNS_4nameE(ptr noundef nonnull readonly align 8 captures(none) dereferenceable(8) %0) local_unnamed_addr #3 {
  %2 = load ptr, ptr %0, align 8, !tbaa !3
  %3 = ptrtoint ptr %2 to i64
  %4 = and i64 %3, 1
  %.not.i.i.i.i.i = icmp eq i64 %4, 0
  br i1 %.not.i.i.i.i.i, label %_ZNK4lean4name9is_stringEv.exit, label %_ZNK4lean4name9is_stringEv.exit.thread

_ZNK4lean4name9is_stringEv.exit:                  ; preds = %1
  %5 = getelementptr i8, ptr %2, i64 4
  %.val.i.i.i.i.i = load i32, ptr %5, align 4
  %.mask = and i32 %.val.i.i.i.i.i, -16777216
  %6 = icmp eq i32 %.mask, 16777216
  br i1 %6, label %.critedge, label %_ZNK4lean4name9is_atomicEv.exit.thread

_ZNK4lean4name9is_stringEv.exit.thread:           ; preds = %1
  %7 = and i64 %3, 8589934590
  %8 = icmp eq i64 %7, 2
  br i1 %8, label %.critedge, label %_ZNK4lean4name9is_atomicEv.exit.thread

.critedge:                                        ; preds = %_ZNK4lean4name9is_stringEv.exit, %_ZNK4lean4name9is_stringEv.exit.thread
  %9 = getelementptr inbounds nuw i8, ptr %2, i64 8
  %10 = load ptr, ptr %9, align 8, !tbaa !12
  %11 = ptrtoint ptr %10 to i64
  %12 = and i64 %11, 1
  %.not.i.i.i.i = icmp eq i64 %12, 0
  br i1 %.not.i.i.i.i, label %16, label %13

13:                                               ; preds = %.critedge
  %14 = lshr i64 %11, 1
  %15 = trunc i64 %14 to i32
  br label %_ZNK4lean4name9is_atomicEv.exit

16:                                               ; preds = %.critedge
  %17 = getelementptr i8, ptr %10, i64 4
  %.val.i.i.i.i = load i32, ptr %17, align 4
  %18 = lshr i32 %.val.i.i.i.i, 24
  br label %_ZNK4lean4name9is_atomicEv.exit

_ZNK4lean4name9is_atomicEv.exit:                  ; preds = %13, %16
  %.0.i.i.i.i = phi i32 [ %15, %13 ], [ %18, %16 ]
  %19 = icmp eq i32 %.0.i.i.i.i, 0
  br i1 %19, label %_ZNK4lean4name9is_atomicEv.exit.thread, label %20

20:                                               ; preds = %_ZNK4lean4name9is_atomicEv.exit
  %21 = getelementptr inbounds nuw i8, ptr %2, i64 16
  %22 = load ptr, ptr %21, align 8, !tbaa !3
  %23 = getelementptr inbounds nuw i8, ptr %22, i64 32
  %24 = tail call i32 @strncmp(ptr noundef nonnull dereferenceable(1) %23, ptr noundef nonnull dereferenceable(8) @.str, i64 noundef 7) #20
  %25 = icmp eq i32 %24, 0
  br label %_ZNK4lean4name9is_atomicEv.exit.thread

_ZNK4lean4name9is_atomicEv.exit.thread:           ; preds = %_ZNK4lean4name9is_stringEv.exit.thread, %_ZNK4lean4name9is_stringEv.exit, %_ZNK4lean4name9is_atomicEv.exit, %20
  %.0 = phi i1 [ %25, %20 ], [ false, %_ZNK4lean4name9is_atomicEv.exit ], [ false, %_ZNK4lean4name9is_stringEv.exit ], [ false, %_ZNK4lean4name9is_stringEv.exit.thread ]
  ret i1 %.0
}